; Function Attrs: nounwind uwtable
define hidden zeroext range(i8 0, 2) i8 @handleRV(ptr noundef %0, i64 noundef %1) local_unnamed_addr #0 {
  %3 = icmp eq i64 %1, 0
  br i1 %3, label %throwPCSCException.exit, label %4

4:                                                ; preds = %2
  %5 = load ptr, ptr %0, align 8
  %6 = getelementptr inbounds i8, ptr %5, i64 48
  %7 = load ptr, ptr %6, align 8
  %8 = tail call ptr %7(ptr noundef nonnull %0, ptr noundef nonnull @.str) #7
  %9 = icmp eq ptr %8, null
  br i1 %9, label %throwPCSCException.exit, label %10

10:                                               ; preds = %4
  %11 = load ptr, ptr %0, align 8
  %12 = getelementptr inbounds i8, ptr %11, i64 264
  %13 = load ptr, ptr %12, align 8
  %14 = tail call ptr %13(ptr noundef nonnull %0, ptr noundef nonnull %8, ptr noundef nonnull @.str.1, ptr noundef nonnull @.str.2) #7
  %15 = icmp eq ptr %14, null
  br i1 %15, label %throwPCSCException.exit, label %16

16:                                               ; preds = %10
  %17 = load ptr, ptr %0, align 8
  %18 = getelementptr inbounds i8, ptr %17, i64 224
  %19 = load ptr, ptr %18, align 8
  %20 = trunc i64 %1 to i32
  %21 = tail call ptr (ptr, ptr, ptr, ...) %19(ptr noundef nonnull %0, ptr noundef nonnull %8, ptr noundef nonnull %14, i32 noundef %20) #7
  %.not.i = icmp eq ptr %21, null
  br i1 %.not.i, label %throwPCSCException.exit, label %22

22:                                               ; preds = %16
  %23 = load ptr, ptr %0, align 8
  %24 = getelementptr inbounds i8, ptr %23, i64 104
  %25 = load ptr, ptr %24, align 8
  %26 = tail call i32 %25(ptr noundef nonnull %0, ptr noundef nonnull %21) #7
  br label %throwPCSCException.exit

throwPCSCException.exit:                          ; preds = %22, %16, %10, %4, %2
  %.0 = phi i8 [ 0, %2 ], [ 1, %4 ], [ 1, %10 ], [ 1, %16 ], [ 1, %22 ]
  ret i8 %.0
}